; Function Attrs: mustprogress uwtable
define void @_Z19common_sampler_freeP14common_sampler(ptr noundef %0) local_unnamed_addr #0 personality ptr @__gxx_personality_v0 {
  %.not = icmp eq ptr %0, null
  br i1 %.not, label %23, label %2

2:                                                ; preds = %1
  %3 = getelementptr inbounds nuw i8, ptr %0, i64 312
  %4 = load ptr, ptr %3, align 8, !tbaa !80
  tail call void @llama_sampler_free(ptr noundef %4)
  %5 = getelementptr inbounds nuw i8, ptr %0, i64 320
  %6 = load ptr, ptr %5, align 8, !tbaa !90
  tail call void @llama_sampler_free(ptr noundef %6)
  %7 = getelementptr inbounds nuw i8, ptr %0, i64 384
  %8 = load ptr, ptr %7, align 8, !tbaa !131
  %.not.i.i.i.i = icmp eq ptr %8, null
  br i1 %.not.i.i.i.i, label %_ZNSt6vectorI16llama_token_dataSaIS0_EED2Ev.exit.i, label %9

9:                                                ; preds = %2
  %10 = getelementptr inbounds nuw i8, ptr %0, i64 400
  %11 = load ptr, ptr %10, align 8, !tbaa !132
  %12 = ptrtoint ptr %11 to i64
  %13 = ptrtoint ptr %8 to i64
  %14 = sub i64 %12, %13
  tail call void @_ZdlPvm(ptr noundef nonnull %8, i64 noundef %14) #26
  br label %_ZNSt6vectorI16llama_token_dataSaIS0_EED2Ev.exit.i

_ZNSt6vectorI16llama_token_dataSaIS0_EED2Ev.exit.i: ; preds = %9, %2
  %15 = getelementptr inbounds nuw i8, ptr %0, i64 360
  %16 = load ptr, ptr %15, align 8, !tbaa !78
  %.not.i.i.i.i.i = icmp eq ptr %16, null
  br i1 %.not.i.i.i.i.i, label %_ZN14common_samplerD2Ev.exit, label %17

17:                                               ; preds = %_ZNSt6vectorI16llama_token_dataSaIS0_EED2Ev.exit.i
  %18 = getelementptr inbounds nuw i8, ptr %0, i64 376
  %19 = load ptr, ptr %18, align 8, !tbaa !93
  %20 = ptrtoint ptr %19 to i64
  %21 = ptrtoint ptr %16 to i64
  %22 = sub i64 %20, %21
  tail call void @_ZdlPvm(ptr noundef nonnull %16, i64 noundef %22) #26
  br label %_ZN14common_samplerD2Ev.exit

_ZN14common_samplerD2Ev.exit:                     ; preds = %_ZNSt6vectorI16llama_token_dataSaIS0_EED2Ev.exit.i, %17
  tail call void @_ZN22common_params_samplingD2Ev(ptr noundef nonnull align 8 dereferenceable(440) %0) #23
  tail call void @_ZdlPvm(ptr noundef nonnull %0, i64 noundef 440) #26
  br label %23

23:                                               ; preds = %_ZN14common_samplerD2Ev.exit, %1
  ret void
}